; ModuleID = '36/271.c'
source_filename = "36/271.c"
target datalayout = "e-m:e-p270:32:32-p271:32:32-p272:64:64-i64:64-f80:128-n8:16:32:64-S128"
target triple = "x86_64-pc-linux-gnu"

@.str = private unnamed_addr constant [6 x i8] c"%s %s\00", align 1
@.str.1 = private unnamed_addr constant [3 x i8] c"NO\00", align 1
@.str.2 = private unnamed_addr constant [4 x i8] c"YES\00", align 1

; Function Attrs: noinline nounwind uwtable
define dso_local void @main() #0 {
  %1 = alloca [20 x i8], align 16
  %2 = alloca [20 x i8], align 16
  %3 = alloca i8, align 1
  %4 = alloca i8, align 1
  %5 = alloca i32, align 4
  %6 = alloca i32, align 4
  %7 = alloca i32, align 4
  store i32 1, i32* %7, align 4
  %8 = getelementptr inbounds [20 x i8], [20 x i8]* %1, i64 0, i64 0
  %9 = getelementptr inbounds [20 x i8], [20 x i8]* %2, i64 0, i64 0
  %10 = call i32 (i8*, ...) @__isoc99_scanf(i8* getelementptr inbounds ([6 x i8], [6 x i8]* @.str, i64 0, i64 0), i8* %8, i8* %9)
  store i32 0, i32* %5, align 4
  br label %11

11:                                               ; preds = %63, %0
  %12 = load i32, i32* %5, align 4
  %13 = sext i32 %12 to i64
  %14 = getelementptr inbounds [20 x i8], [20 x i8]* %1, i64 0, i64 0
  %15 = call i64 @strlen(i8* %14) #3
  %16 = icmp ult i64 %13, %15
  br i1 %16, label %17, label %66

17:                                               ; preds = %11
  store i32 0, i32* %6, align 4
  br label %18

18:                                               ; preds = %59, %17
  %19 = load i32, i32* %6, align 4
  %20 = sext i32 %19 to i64
  %21 = getelementptr inbounds [20 x i8], [20 x i8]* %1, i64 0, i64 0
  %22 = call i64 @strlen(i8* %21) #3
  %23 = load i32, i32* %5, align 4
  %24 = sext i32 %23 to i64
  %25 = sub i64 %22, %24
  %26 = icmp ult i64 %20, %25
  br i1 %26, label %27, label %62

27:                                               ; preds = %18
  %28 = load i32, i32* %6, align 4
  %29 = sext i32 %28 to i64
  %30 = getelementptr inbounds [20 x i8], [20 x i8]* %1, i64 0, i64 %29
  %31 = load i8, i8* %30, align 1
  %32 = sext i8 %31 to i32
  %33 = load i32, i32* %6, align 4
  %34 = add nsw i32 %33, 1
  %35 = sext i32 %34 to i64
  %36 = getelementptr inbounds [20 x i8], [20 x i8]* %1, i64 0, i64 %35
  %37 = load i8, i8* %36, align 1
  %38 = sext i8 %37 to i32
  %39 = icmp sgt i32 %32, %38
  br i1 %39, label %40, label %58

40:                                               ; preds = %27
  %41 = load i32, i32* %6, align 4
  %42 = sext i32 %41 to i64
  %43 = getelementptr inbounds [20 x i8], [20 x i8]* %1, i64 0, i64 %42
  %44 = load i8, i8* %43, align 1
  store i8 %44, i8* %3, align 1
  %45 = load i32, i32* %6, align 4
  %46 = add nsw i32 %45, 1
  %47 = sext i32 %46 to i64
  %48 = getelementptr inbounds [20 x i8], [20 x i8]* %1, i64 0, i64 %47
  %49 = load i8, i8* %48, align 1
  %50 = load i32, i32* %6, align 4
  %51 = sext i32 %50 to i64
  %52 = getelementptr inbounds [20 x i8], [20 x i8]* %1, i64 0, i64 %51
  store i8 %49, i8* %52, align 1
  %53 = load i8, i8* %3, align 1
  %54 = load i32, i32* %6, align 4
  %55 = add nsw i32 %54, 1
  %56 = sext i32 %55 to i64
  %57 = getelementptr inbounds [20 x i8], [20 x i8]* %1, i64 0, i64 %56
  store i8 %53, i8* %57, align 1
  br label %58

58:                                               ; preds = %40, %27
  br label %59

59:                                               ; preds = %58
  %60 = load i32, i32* %6, align 4
  %61 = add nsw i32 %60, 1
  store i32 %61, i32* %6, align 4
  br label %18

62:                                               ; preds = %18
  br label %63

63:                                               ; preds = %62
  %64 = load i32, i32* %5, align 4
  %65 = add nsw i32 %64, 1
  store i32 %65, i32* %5, align 4
  br label %11

66:                                               ; preds = %11
  store i32 0, i32* %5, align 4
  br label %67

67:                                               ; preds = %119, %66
  %68 = load i32, i32* %5, align 4
  %69 = sext i32 %68 to i64
  %70 = getelementptr inbounds [20 x i8], [20 x i8]* %2, i64 0, i64 0
  %71 = call i64 @strlen(i8* %70) #3
  %72 = icmp ult i64 %69, %71
  br i1 %72, label %73, label %122

73:                                               ; preds = %67
  store i32 0, i32* %6, align 4
  br label %74

74:                                               ; preds = %115, %73
  %75 = load i32, i32* %6, align 4
  %76 = sext i32 %75 to i64
  %77 = getelementptr inbounds [20 x i8], [20 x i8]* %2, i64 0, i64 0
  %78 = call i64 @strlen(i8* %77) #3
  %79 = load i32, i32* %5, align 4
  %80 = sext i32 %79 to i64
  %81 = sub i64 %78, %80
  %82 = icmp ult i64 %76, %81
  br i1 %82, label %83, label %118

83:                                               ; preds = %74
  %84 = load i32, i32* %6, align 4
  %85 = sext i32 %84 to i64
  %86 = getelementptr inbounds [20 x i8], [20 x i8]* %2, i64 0, i64 %85
  %87 = load i8, i8* %86, align 1
  %88 = sext i8 %87 to i32
  %89 = load i32, i32* %6, align 4
  %90 = add nsw i32 %89, 1
  %91 = sext i32 %90 to i64
  %92 = getelementptr inbounds [20 x i8], [20 x i8]* %2, i64 0, i64 %91
  %93 = load i8, i8* %92, align 1
  %94 = sext i8 %93 to i32
  %95 = icmp sgt i32 %88, %94
  br i1 %95, label %96, label %114

96:                                               ; preds = %83
  %97 = load i32, i32* %6, align 4
  %98 = sext i32 %97 to i64
  %99 = getelementptr inbounds [20 x i8], [20 x i8]* %2, i64 0, i64 %98
  %100 = load i8, i8* %99, align 1
  store i8 %100, i8* %4, align 1
  %101 = load i32, i32* %6, align 4
  %102 = add nsw i32 %101, 1
  %103 = sext i32 %102 to i64
  %104 = getelementptr inbounds [20 x i8], [20 x i8]* %2, i64 0, i64 %103
  %105 = load i8, i8* %104, align 1
  %106 = load i32, i32* %6, align 4
  %107 = sext i32 %106 to i64
  %108 = getelementptr inbounds [20 x i8], [20 x i8]* %2, i64 0, i64 %107
  store i8 %105, i8* %108, align 1
  %109 = load i8, i8* %4, align 1
  %110 = load i32, i32* %6, align 4
  %111 = add nsw i32 %110, 1
  %112 = sext i32 %111 to i64
  %113 = getelementptr inbounds [20 x i8], [20 x i8]* %2, i64 0, i64 %112
  store i8 %109, i8* %113, align 1
  br label %114

114:                                              ; preds = %96, %83
  br label %115

115:                                              ; preds = %114
  %116 = load i32, i32* %6, align 4
  %117 = add nsw i32 %116, 1
  store i32 %117, i32* %6, align 4
  br label %74

118:                                              ; preds = %74
  br label %119

119:                                              ; preds = %118
  %120 = load i32, i32* %5, align 4
  %121 = add nsw i32 %120, 1
  store i32 %121, i32* %5, align 4
  br label %67

122:                                              ; preds = %67
  store i32 0, i32* %5, align 4
  br label %123

123:                                              ; preds = %143, %122
  %124 = load i32, i32* %5, align 4
  %125 = sext i32 %124 to i64
  %126 = getelementptr inbounds [20 x i8], [20 x i8]* %1, i64 0, i64 0
  %127 = call i64 @strlen(i8* %126) #3
  %128 = icmp ult i64 %125, %127
  br i1 %128, label %129, label %146

129:                                              ; preds = %123
  %130 = load i32, i32* %5, align 4
  %131 = sext i32 %130 to i64
  %132 = getelementptr inbounds [20 x i8], [20 x i8]* %1, i64 0, i64 %131
  %133 = load i8, i8* %132, align 1
  %134 = sext i8 %133 to i32
  %135 = load i32, i32* %5, align 4
  %136 = sext i32 %135 to i64
  %137 = getelementptr inbounds [20 x i8], [20 x i8]* %2, i64 0, i64 %136
  %138 = load i8, i8* %137, align 1
  %139 = sext i8 %138 to i32
  %140 = icmp ne i32 %134, %139
  br i1 %140, label %141, label %142

141:                                              ; preds = %129
  store i32 0, i32* %7, align 4
  br label %146

142:                                              ; preds = %129
  br label %143

143:                                              ; preds = %142
  %144 = load i32, i32* %5, align 4
  %145 = add nsw i32 %144, 1
  store i32 %145, i32* %5, align 4
  br label %123

146:                                              ; preds = %141, %123
  %147 = load i32, i32* %7, align 4
  %148 = icmp eq i32 %147, 0
  br i1 %148, label %149, label %151

149:                                              ; preds = %146
  %150 = call i32 (i8*, ...) @printf(i8* getelementptr inbounds ([3 x i8], [3 x i8]* @.str.1, i64 0, i64 0))
  br label %151

151:                                              ; preds = %149, %146
  %152 = load i32, i32* %7, align 4
  %153 = icmp eq i32 %152, 1
  br i1 %153, label %154, label %156

154:                                              ; preds = %151
  %155 = call i32 (i8*, ...) @printf(i8* getelementptr inbounds ([4 x i8], [4 x i8]* @.str.2, i64 0, i64 0))
  br label %156

156:                                              ; preds = %154, %151
  ret void
}

declare dso_local i32 @__isoc99_scanf(i8*, ...) #1

; Function Attrs: nounwind readonly
declare dso_local i64 @strlen(i8*) #2

declare dso_local i32 @printf(i8*, ...) #1


!llvm.module.flags = !{!0}
!llvm.ident = !{!1}

!0 = !{i32 1, !"wchar_size", i32 4}
!1 = !{!"clang version 10.0.0-4ubuntu1 "}
